; Function Attrs: mustprogress uwtable
define dso_local noundef zeroext i1 @_ZN3net13NullEncrypter6SetKeyEN4base16BasicStringPieceINSt7__cxx1112basic_stringIcSt11char_traitsIcESaIcEEEEE(ptr nocapture nonnull readnone align 8 %this, ptr %key.coerce0, i64 %key.coerce1) unnamed_addr #1 align 2 {
entry:
  %key = alloca %"class.base::BasicStringPiece", align 8
  store ptr %key.coerce0, ptr %key, align 8
  %0 = getelementptr inbounds i8, ptr %key, i64 8
  store i64 %key.coerce1, ptr %0, align 8
  %call = call noundef zeroext i1 @_ZNK4base16BasicStringPieceINSt7__cxx1112basic_stringIcSt11char_traitsIcESaIcEEEE5emptyEv(ptr noundef nonnull align 8 dereferenceable(16) %key)
  ret i1 %call
}